target datalayout = "e-m:e-p270:32:32-p271:32:32-p272:64:64-i64:64-i128:128-f80:128-n8:16:32:64-S128"
target triple = "x86_64-pc-linux-gnu"

%struct.FT_LzwStateRec_ = type { i32, i32, [16 x i8], i32, i32, i8, i64, i32, i32, i32, i32, i32, i32, i32, i32, i32, ptr, ptr, i32, ptr, i32, i64, [64 x i8], ptr, ptr }

; Function Attrs: nounwind uwtable
define internal i32 @ft_lzwstate_refill(ptr noundef %0) #0 {
  %2 = alloca i32, align 4
  %3 = alloca ptr, align 8
  %4 = alloca i64, align 8
  %5 = alloca i32, align 4
  store ptr %0, ptr %3, align 8, !tbaa !24
  call void @llvm.lifetime.start.p0(i64 8, ptr %4) #5
  %6 = load ptr, ptr %3, align 8, !tbaa !24
  %7 = getelementptr inbounds nuw %struct.FT_LzwStateRec_, ptr %6, i32 0, i32 1
  %8 = load i32, ptr %7, align 4, !tbaa !37
  %9 = icmp ne i32 %8, 0
  br i1 %9, label %10, label %11

10:                                               ; preds = %1
  store i32 -1, ptr %2, align 4
  store i32 1, ptr %5, align 4
  br label %73

11:                                               ; preds = %1
  %12 = load ptr, ptr %3, align 8, !tbaa !24
  %13 = getelementptr inbounds nuw %struct.FT_LzwStateRec_, ptr %12, i32 0, i32 23
  %14 = load ptr, ptr %13, align 8, !tbaa !45
  %15 = load ptr, ptr %3, align 8, !tbaa !24
  %16 = getelementptr inbounds nuw %struct.FT_LzwStateRec_, ptr %15, i32 0, i32 2
  %17 = getelementptr inbounds [16 x i8], ptr %16, i64 0, i64 0
  %18 = load ptr, ptr %3, align 8, !tbaa !24
  %19 = getelementptr inbounds nuw %struct.FT_LzwStateRec_, ptr %18, i32 0, i32 10
  %20 = load i32, ptr %19, align 4, !tbaa !43
  %21 = zext i32 %20 to i64
  %22 = call i64 @FT_Stream_TryRead(ptr noundef %14, ptr noundef %17, i64 noundef %21)
  store i64 %22, ptr %4, align 8, !tbaa !35
  %23 = load i64, ptr %4, align 8, !tbaa !35
  %24 = trunc i64 %23 to i32
  %25 = load ptr, ptr %3, align 8, !tbaa !24
  %26 = getelementptr inbounds nuw %struct.FT_LzwStateRec_, ptr %25, i32 0, i32 4
  store i32 %24, ptr %26, align 4, !tbaa !39
  %27 = load i64, ptr %4, align 8, !tbaa !35
  %28 = load ptr, ptr %3, align 8, !tbaa !24
  %29 = getelementptr inbounds nuw %struct.FT_LzwStateRec_, ptr %28, i32 0, i32 6
  %30 = load i64, ptr %29, align 8, !tbaa !41
  %31 = add i64 %30, %27
  store i64 %31, ptr %29, align 8, !tbaa !41
  %32 = load i64, ptr %4, align 8, !tbaa !35
  %33 = load ptr, ptr %3, align 8, !tbaa !24
  %34 = getelementptr inbounds nuw %struct.FT_LzwStateRec_, ptr %33, i32 0, i32 10
  %35 = load i32, ptr %34, align 4, !tbaa !43
  %36 = zext i32 %35 to i64
  %37 = icmp ult i64 %32, %36
  %38 = zext i1 %37 to i32
  %39 = icmp ne i32 %38, 0
  %40 = zext i1 %39 to i32
  %41 = trunc i32 %40 to i8
  %42 = zext i8 %41 to i32
  %43 = load ptr, ptr %3, align 8, !tbaa !24
  %44 = getelementptr inbounds nuw %struct.FT_LzwStateRec_, ptr %43, i32 0, i32 1
  store i32 %42, ptr %44, align 4, !tbaa !37
  %45 = load ptr, ptr %3, align 8, !tbaa !24
  %46 = getelementptr inbounds nuw %struct.FT_LzwStateRec_, ptr %45, i32 0, i32 3
  store i32 0, ptr %46, align 8, !tbaa !38
  %47 = load ptr, ptr %3, align 8, !tbaa !24
  %48 = getelementptr inbounds nuw %struct.FT_LzwStateRec_, ptr %47, i32 0, i32 4
  %49 = load i32, ptr %48, align 4, !tbaa !39
  %50 = shl i32 %49, 3
  store i32 %50, ptr %48, align 4, !tbaa !39
  %51 = load ptr, ptr %3, align 8, !tbaa !24
  %52 = getelementptr inbounds nuw %struct.FT_LzwStateRec_, ptr %51, i32 0, i32 4
  %53 = load i32, ptr %52, align 4, !tbaa !39
  %54 = load ptr, ptr %3, align 8, !tbaa !24
  %55 = getelementptr inbounds nuw %struct.FT_LzwStateRec_, ptr %54, i32 0, i32 10
  %56 = load i32, ptr %55, align 4, !tbaa !43
  %57 = icmp ugt i32 %53, %56
  br i1 %57, label %58, label %67

58:                                               ; preds = %11
  %59 = load ptr, ptr %3, align 8, !tbaa !24
  %60 = getelementptr inbounds nuw %struct.FT_LzwStateRec_, ptr %59, i32 0, i32 10
  %61 = load i32, ptr %60, align 4, !tbaa !43
  %62 = sub i32 %61, 1
  %63 = load ptr, ptr %3, align 8, !tbaa !24
  %64 = getelementptr inbounds nuw %struct.FT_LzwStateRec_, ptr %63, i32 0, i32 4
  %65 = load i32, ptr %64, align 4, !tbaa !39
  %66 = sub i32 %65, %62
  store i32 %66, ptr %64, align 4, !tbaa !39
  br label %68

67:                                               ; preds = %11
  store i32 -1, ptr %2, align 4
  store i32 1, ptr %5, align 4
  br label %73

68:                                               ; preds = %58
  %69 = load i64, ptr %4, align 8, !tbaa !35
  %70 = icmp eq i64 %69, 0
  br i1 %70, label %71, label %72

71:                                               ; preds = %68
  store i32 -1, ptr %2, align 4
  store i32 1, ptr %5, align 4
  br label %73

72:                                               ; preds = %68
  store i32 0, ptr %2, align 4
  store i32 1, ptr %5, align 4
  br label %73

73:                                               ; preds = %72, %71, %67, %10
  call void @llvm.lifetime.end.p0(i64 8, ptr %4) #5
  %74 = load i32, ptr %2, align 4
  ret i32 %74
}

; Function Attrs: nounwind uwtable
define internal i32 @ft_lzwstate_get_code(ptr noundef %0) #0 {
  %2 = alloca i32, align 4
  %3 = alloca ptr, align 8
  %4 = alloca i32, align 4
  %5 = alloca i32, align 4
  %6 = alloca ptr, align 8
  %7 = alloca i32, align 4
  %8 = alloca i32, align 4
  store ptr %0, ptr %3, align 8, !tbaa !24
  call void @llvm.lifetime.start.p0(i64 4, ptr %4) #5
  %9 = load ptr, ptr %3, align 8, !tbaa !24
  %10 = getelementptr inbounds nuw %struct.FT_LzwStateRec_, ptr %9, i32 0, i32 10
  %11 = load i32, ptr %10, align 4, !tbaa !43
  store i32 %11, ptr %4, align 4, !tbaa !10
  call void @llvm.lifetime.start.p0(i64 4, ptr %5) #5
  %12 = load ptr, ptr %3, align 8, !tbaa !24
  %13 = getelementptr inbounds nuw %struct.FT_LzwStateRec_, ptr %12, i32 0, i32 3
  %14 = load i32, ptr %13, align 8, !tbaa !38
  store i32 %14, ptr %5, align 4, !tbaa !10
  call void @llvm.lifetime.start.p0(i64 8, ptr %6) #5
  call void @llvm.lifetime.start.p0(i64 4, ptr %7) #5
  %15 = load ptr, ptr %3, align 8, !tbaa !24
  %16 = getelementptr inbounds nuw %struct.FT_LzwStateRec_, ptr %15, i32 0, i32 5
  %17 = load i8, ptr %16, align 8, !tbaa !40
  %18 = zext i8 %17 to i32
  %19 = icmp ne i32 %18, 0
  br i1 %19, label %34, label %20

20:                                               ; preds = %1
  %21 = load i32, ptr %5, align 4, !tbaa !10
  %22 = load ptr, ptr %3, align 8, !tbaa !24
  %23 = getelementptr inbounds nuw %struct.FT_LzwStateRec_, ptr %22, i32 0, i32 4
  %24 = load i32, ptr %23, align 4, !tbaa !39
  %25 = icmp uge i32 %21, %24
  br i1 %25, label %34, label %26

26:                                               ; preds = %20
  %27 = load ptr, ptr %3, align 8, !tbaa !24
  %28 = getelementptr inbounds nuw %struct.FT_LzwStateRec_, ptr %27, i32 0, i32 11
  %29 = load i32, ptr %28, align 8, !tbaa !58
  %30 = load ptr, ptr %3, align 8, !tbaa !24
  %31 = getelementptr inbounds nuw %struct.FT_LzwStateRec_, ptr %30, i32 0, i32 12
  %32 = load i32, ptr %31, align 4, !tbaa !59
  %33 = icmp uge i32 %29, %32
  br i1 %33, label %34, label %96

34:                                               ; preds = %26, %20, %1
  %35 = load ptr, ptr %3, align 8, !tbaa !24
  %36 = getelementptr inbounds nuw %struct.FT_LzwStateRec_, ptr %35, i32 0, i32 11
  %37 = load i32, ptr %36, align 8, !tbaa !58
  %38 = load ptr, ptr %3, align 8, !tbaa !24
  %39 = getelementptr inbounds nuw %struct.FT_LzwStateRec_, ptr %38, i32 0, i32 12
  %40 = load i32, ptr %39, align 4, !tbaa !59
  %41 = icmp uge i32 %37, %40
  br i1 %41, label %42, label %73

42:                                               ; preds = %34
  %43 = load i32, ptr %4, align 4, !tbaa !10
  %44 = add i32 %43, 1
  store i32 %44, ptr %4, align 4, !tbaa !10
  %45 = load ptr, ptr %3, align 8, !tbaa !24
  %46 = getelementptr inbounds nuw %struct.FT_LzwStateRec_, ptr %45, i32 0, i32 10
  store i32 %44, ptr %46, align 4, !tbaa !43
  %47 = load i32, ptr %4, align 4, !tbaa !10
  %48 = icmp ugt i32 %47, 16
  br i1 %48, label %49, label %50

49:                                               ; preds = %42
  store i32 -1, ptr %2, align 4
  store i32 1, ptr %8, align 4
  br label %153

50:                                               ; preds = %42
  %51 = load ptr, ptr %3, align 8, !tbaa !24
  %52 = getelementptr inbounds nuw %struct.FT_LzwStateRec_, ptr %51, i32 0, i32 10
  %53 = load i32, ptr %52, align 4, !tbaa !43
  %54 = load ptr, ptr %3, align 8, !tbaa !24
  %55 = getelementptr inbounds nuw %struct.FT_LzwStateRec_, ptr %54, i32 0, i32 7
  %56 = load i32, ptr %55, align 8, !tbaa !55
  %57 = icmp ult i32 %53, %56
  br i1 %57, label %58, label %64

58:                                               ; preds = %50
  %59 = load i32, ptr %4, align 4, !tbaa !10
  %60 = zext i32 %59 to i64
  %61 = shl i64 1, %60
  %62 = sub i64 %61, 256
  %63 = trunc i64 %62 to i32
  br label %69

64:                                               ; preds = %50
  %65 = load ptr, ptr %3, align 8, !tbaa !24
  %66 = getelementptr inbounds nuw %struct.FT_LzwStateRec_, ptr %65, i32 0, i32 9
  %67 = load i32, ptr %66, align 8, !tbaa !57
  %68 = add i32 %67, 1
  br label %69

69:                                               ; preds = %64, %58
  %70 = phi i32 [ %63, %58 ], [ %68, %64 ]
  %71 = load ptr, ptr %3, align 8, !tbaa !24
  %72 = getelementptr inbounds nuw %struct.FT_LzwStateRec_, ptr %71, i32 0, i32 12
  store i32 %70, ptr %72, align 4, !tbaa !59
  br label %73

73:                                               ; preds = %69, %34
  %74 = load ptr, ptr %3, align 8, !tbaa !24
  %75 = getelementptr inbounds nuw %struct.FT_LzwStateRec_, ptr %74, i32 0, i32 5
  %76 = load i8, ptr %75, align 8, !tbaa !40
  %77 = icmp ne i8 %76, 0
  br i1 %77, label %78, label %90

78:                                               ; preds = %73
  store i32 9, ptr %4, align 4, !tbaa !10
  %79 = load ptr, ptr %3, align 8, !tbaa !24
  %80 = getelementptr inbounds nuw %struct.FT_LzwStateRec_, ptr %79, i32 0, i32 10
  store i32 9, ptr %80, align 4, !tbaa !43
  %81 = load i32, ptr %4, align 4, !tbaa !10
  %82 = zext i32 %81 to i64
  %83 = shl i64 1, %82
  %84 = sub i64 %83, 256
  %85 = trunc i64 %84 to i32
  %86 = load ptr, ptr %3, align 8, !tbaa !24
  %87 = getelementptr inbounds nuw %struct.FT_LzwStateRec_, ptr %86, i32 0, i32 12
  store i32 %85, ptr %87, align 4, !tbaa !59
  %88 = load ptr, ptr %3, align 8, !tbaa !24
  %89 = getelementptr inbounds nuw %struct.FT_LzwStateRec_, ptr %88, i32 0, i32 5
  store i8 0, ptr %89, align 8, !tbaa !40
  br label %90

90:                                               ; preds = %78, %73
  %91 = load ptr, ptr %3, align 8, !tbaa !24
  %92 = call i32 @ft_lzwstate_refill(ptr noundef %91)
  %93 = icmp slt i32 %92, 0
  br i1 %93, label %94, label %95

94:                                               ; preds = %90
  store i32 -1, ptr %2, align 4
  store i32 1, ptr %8, align 4
  br label %153

95:                                               ; preds = %90
  store i32 0, ptr %5, align 4, !tbaa !10
  br label %96

96:                                               ; preds = %95, %26
  %97 = load i32, ptr %5, align 4, !tbaa !10
  %98 = load i32, ptr %4, align 4, !tbaa !10
  %99 = add i32 %97, %98
  %100 = load ptr, ptr %3, align 8, !tbaa !24
  %101 = getelementptr inbounds nuw %struct.FT_LzwStateRec_, ptr %100, i32 0, i32 3
  store i32 %99, ptr %101, align 8, !tbaa !38
  %102 = load ptr, ptr %3, align 8, !tbaa !24
  %103 = getelementptr inbounds nuw %struct.FT_LzwStateRec_, ptr %102, i32 0, i32 2
  %104 = load i32, ptr %5, align 4, !tbaa !10
  %105 = lshr i32 %104, 3
  %106 = zext i32 %105 to i64
  %107 = getelementptr inbounds nuw [16 x i8], ptr %103, i64 0, i64 %106
  store ptr %107, ptr %6, align 8, !tbaa !36
  %108 = load i32, ptr %5, align 4, !tbaa !10
  %109 = and i32 %108, 7
  store i32 %109, ptr %5, align 4, !tbaa !10
  %110 = load ptr, ptr %6, align 8, !tbaa !36
  %111 = getelementptr inbounds nuw i8, ptr %110, i32 1
  store ptr %111, ptr %6, align 8, !tbaa !36
  %112 = load i8, ptr %110, align 1, !tbaa !18
  %113 = zext i8 %112 to i32
  %114 = load i32, ptr %5, align 4, !tbaa !10
  %115 = ashr i32 %113, %114
  store i32 %115, ptr %7, align 4, !tbaa !10
  %116 = load i32, ptr %5, align 4, !tbaa !10
  %117 = sub i32 8, %116
  store i32 %117, ptr %5, align 4, !tbaa !10
  %118 = load i32, ptr %5, align 4, !tbaa !10
  %119 = load i32, ptr %4, align 4, !tbaa !10
  %120 = sub i32 %119, %118
  store i32 %120, ptr %4, align 4, !tbaa !10
  %121 = load i32, ptr %4, align 4, !tbaa !10
  %122 = icmp uge i32 %121, 8
  br i1 %122, label %123, label %136

123:                                              ; preds = %96
  %124 = load ptr, ptr %6, align 8, !tbaa !36
  %125 = getelementptr inbounds nuw i8, ptr %124, i32 1
  store ptr %125, ptr %6, align 8, !tbaa !36
  %126 = load i8, ptr %124, align 1, !tbaa !18
  %127 = zext i8 %126 to i32
  %128 = load i32, ptr %5, align 4, !tbaa !10
  %129 = shl i32 %127, %128
  %130 = load i32, ptr %7, align 4, !tbaa !10
  %131 = or i32 %130, %129
  store i32 %131, ptr %7, align 4, !tbaa !10
  %132 = load i32, ptr %5, align 4, !tbaa !10
  %133 = add i32 %132, 8
  store i32 %133, ptr %5, align 4, !tbaa !10
  %134 = load i32, ptr %4, align 4, !tbaa !10
  %135 = sub i32 %134, 8
  store i32 %135, ptr %4, align 4, !tbaa !10
  br label %136

136:                                              ; preds = %123, %96
  %137 = load i32, ptr %4, align 4, !tbaa !10
  %138 = icmp ugt i32 %137, 0
  br i1 %138, label %139, label %151

139:                                              ; preds = %136
  %140 = load ptr, ptr %6, align 8, !tbaa !36
  %141 = load i8, ptr %140, align 1, !tbaa !18
  %142 = zext i8 %141 to i32
  %143 = load i32, ptr %4, align 4, !tbaa !10
  %144 = shl i32 1, %143
  %145 = sub i32 %144, 1
  %146 = and i32 %142, %145
  %147 = load i32, ptr %5, align 4, !tbaa !10
  %148 = shl i32 %146, %147
  %149 = load i32, ptr %7, align 4, !tbaa !10
  %150 = or i32 %149, %148
  store i32 %150, ptr %7, align 4, !tbaa !10
  br label %151

151:                                              ; preds = %139, %136
  %152 = load i32, ptr %7, align 4, !tbaa !10
  store i32 %152, ptr %2, align 4
  store i32 1, ptr %8, align 4
  br label %153

153:                                              ; preds = %151, %94, %49
  call void @llvm.lifetime.end.p0(i64 4, ptr %7) #5
  call void @llvm.lifetime.end.p0(i64 8, ptr %6) #5
  call void @llvm.lifetime.end.p0(i64 4, ptr %5) #5
  call void @llvm.lifetime.end.p0(i64 4, ptr %4) #5
  %154 = load i32, ptr %2, align 4
  ret i32 %154
}