; Function Attrs: nounwind uwtable
define internal fastcc range(i32 -1, 16777216) i32 @ft_lzwstate_get_code(ptr noundef %0) unnamed_addr #0 {
  %2 = getelementptr inbounds nuw i8, ptr %0, i64 60
  %3 = load i32, ptr %2, align 4, !tbaa !28
  %4 = getelementptr inbounds nuw i8, ptr %0, i64 24
  %5 = load i32, ptr %4, align 8, !tbaa !55
  %6 = getelementptr inbounds nuw i8, ptr %0, i64 32
  %7 = load i8, ptr %6, align 8, !tbaa !47
  %.not = icmp eq i8 %7, 0
  br i1 %.not, label %8, label %16

8:                                                ; preds = %1
  %9 = getelementptr inbounds nuw i8, ptr %0, i64 28
  %10 = load i32, ptr %9, align 4, !tbaa !56
  %.not56 = icmp ult i32 %5, %10
  br i1 %.not56, label %11, label %16

11:                                               ; preds = %8
  %12 = getelementptr inbounds nuw i8, ptr %0, i64 64
  %13 = load i32, ptr %12, align 8, !tbaa !45
  %14 = getelementptr inbounds nuw i8, ptr %0, i64 68
  %15 = load i32, ptr %14, align 4, !tbaa !46
  %.not57 = icmp ult i32 %13, %15
  br i1 %.not57, label %64, label %16

16:                                               ; preds = %11, %8, %1
  %17 = getelementptr inbounds nuw i8, ptr %0, i64 64
  %18 = load i32, ptr %17, align 8, !tbaa !45
  %19 = getelementptr inbounds nuw i8, ptr %0, i64 68
  %20 = load i32, ptr %19, align 4, !tbaa !46
  %.not58 = icmp ult i32 %18, %20
  br i1 %.not58, label %39, label %21

21:                                               ; preds = %16
  %22 = add i32 %3, 1
  store i32 %22, ptr %2, align 4, !tbaa !28
  %23 = icmp ugt i32 %22, 16
  br i1 %23, label %ft_lzwstate_refill.exit.thread, label %24

24:                                               ; preds = %21
  %25 = getelementptr inbounds nuw i8, ptr %0, i64 48
  %26 = load i32, ptr %25, align 8, !tbaa !42
  %27 = icmp ult i32 %22, %26
  br i1 %27, label %28, label %33

28:                                               ; preds = %24
  %29 = zext nneg i32 %22 to i64
  %30 = shl nuw nsw i64 1, %29
  %31 = trunc nuw i64 %30 to i32
  %32 = add nsw i32 %31, -256
  br label %37

33:                                               ; preds = %24
  %34 = getelementptr inbounds nuw i8, ptr %0, i64 56
  %35 = load i32, ptr %34, align 8, !tbaa !44
  %36 = add i32 %35, 1
  br label %37

37:                                               ; preds = %33, %28
  %38 = phi i32 [ %32, %28 ], [ %36, %33 ]
  store i32 %38, ptr %19, align 4, !tbaa !46
  br label %39

39:                                               ; preds = %37, %16
  %.150 = phi i32 [ %22, %37 ], [ %3, %16 ]
  br i1 %.not, label %41, label %40

40:                                               ; preds = %39
  store i32 9, ptr %2, align 4, !tbaa !28
  store i32 256, ptr %19, align 4, !tbaa !46
  store i8 0, ptr %6, align 8, !tbaa !47
  br label %41

41:                                               ; preds = %40, %39
  %42 = phi i32 [ 9, %40 ], [ %.150, %39 ]
  %43 = getelementptr inbounds nuw i8, ptr %0, i64 4
  %44 = load i32, ptr %43, align 4, !tbaa !34
  %.not.i = icmp eq i32 %44, 0
  br i1 %.not.i, label %45, label %ft_lzwstate_refill.exit.thread

45:                                               ; preds = %41
  %46 = getelementptr inbounds nuw i8, ptr %0, i64 200
  %47 = load ptr, ptr %46, align 8, !tbaa !24
  %48 = getelementptr inbounds nuw i8, ptr %0, i64 8
  %49 = zext i32 %42 to i64
  %50 = tail call i64 @FT_Stream_TryRead(ptr noundef %47, ptr noundef nonnull %48, i64 noundef %49) #8
  %51 = trunc i64 %50 to i32
  %52 = getelementptr inbounds nuw i8, ptr %0, i64 28
  %53 = getelementptr inbounds nuw i8, ptr %0, i64 40
  %54 = load i64, ptr %53, align 8, !tbaa !35
  %55 = add i64 %54, %50
  store i64 %55, ptr %53, align 8, !tbaa !35
  %56 = load i32, ptr %2, align 4, !tbaa !28
  %57 = zext i32 %56 to i64
  %58 = icmp ult i64 %50, %57
  %59 = zext i1 %58 to i32
  store i32 %59, ptr %43, align 4, !tbaa !34
  store i32 0, ptr %4, align 8, !tbaa !55
  %60 = shl i32 %51, 3
  store i32 %60, ptr %52, align 4, !tbaa !56
  %61 = icmp ugt i32 %60, %56
  br i1 %61, label %ft_lzwstate_refill.exit, label %ft_lzwstate_refill.exit.thread

ft_lzwstate_refill.exit:                          ; preds = %45
  %.neg20.i = or disjoint i32 %60, 1
  %62 = sub i32 %.neg20.i, %56
  store i32 %62, ptr %52, align 4, !tbaa !56
  %63 = icmp eq i64 %50, 0
  br i1 %63, label %ft_lzwstate_refill.exit.thread, label %64

64:                                               ; preds = %ft_lzwstate_refill.exit, %11
  %.049 = phi i32 [ %3, %11 ], [ %42, %ft_lzwstate_refill.exit ]
  %.047 = phi i32 [ %5, %11 ], [ 0, %ft_lzwstate_refill.exit ]
  %65 = add i32 %.047, %.049
  store i32 %65, ptr %4, align 8, !tbaa !55
  %66 = getelementptr inbounds nuw i8, ptr %0, i64 8
  %67 = lshr i32 %.047, 3
  %68 = zext nneg i32 %67 to i64
  %69 = getelementptr inbounds nuw [16 x i8], ptr %66, i64 0, i64 %68
  %70 = and i32 %.047, 7
  %71 = getelementptr inbounds nuw i8, ptr %69, i64 1
  %72 = load i8, ptr %69, align 1, !tbaa !11
  %73 = zext i8 %72 to i32
  %74 = lshr i32 %73, %70
  %75 = sub nuw nsw i32 8, %70
  %76 = sub i32 %.049, %75
  %77 = icmp ugt i32 %76, 7
  br i1 %77, label %78, label %86

78:                                               ; preds = %64
  %79 = getelementptr inbounds nuw i8, ptr %69, i64 2
  %80 = load i8, ptr %71, align 1, !tbaa !11
  %81 = zext i8 %80 to i32
  %82 = shl nuw nsw i32 %81, %75
  %83 = or i32 %82, %74
  %84 = sub nuw nsw i32 16, %70
  %85 = add i32 %76, -8
  br label %86

86:                                               ; preds = %78, %64
  %.3 = phi i32 [ %85, %78 ], [ %76, %64 ]
  %.148 = phi i32 [ %84, %78 ], [ %75, %64 ]
  %.046 = phi ptr [ %79, %78 ], [ %71, %64 ]
  %.0 = phi i32 [ %83, %78 ], [ %74, %64 ]
  %.not60 = icmp eq i32 %.3, 0
  br i1 %.not60, label %ft_lzwstate_refill.exit.thread, label %87

87:                                               ; preds = %86
  %88 = load i8, ptr %.046, align 1, !tbaa !11
  %89 = zext i8 %88 to i32
  %notmask = shl nsw i32 -1, %.3
  %90 = xor i32 %notmask, -1
  %91 = and i32 %89, %90
  %92 = shl nuw nsw i32 %91, %.148
  %93 = or i32 %92, %.0
  br label %ft_lzwstate_refill.exit.thread

ft_lzwstate_refill.exit.thread:                   ; preds = %45, %41, %86, %87, %ft_lzwstate_refill.exit, %21
  %.051 = phi i32 [ -1, %21 ], [ -1, %ft_lzwstate_refill.exit ], [ %93, %87 ], [ %.0, %86 ], [ -1, %41 ], [ -1, %45 ]
  ret i32 %.051
}